; Function Attrs: nounwind uwtable
define ptr @l_Lean_Compiler_LCNF_collectLocalDeclsArgs___boxed(ptr noundef %0, ptr noundef %1) local_unnamed_addr #1 {
  %3 = getelementptr i8, ptr %1, i64 8
  %.val.i = load i64, ptr %3, align 8, !tbaa !12
  %.mask.i = and i64 %.val.i, 9223372036854775807
  %.not.i4 = icmp eq i64 %.mask.i, 0
  br i1 %.not.i4, label %l_Lean_Compiler_LCNF_collectLocalDeclsArgs.exit, label %.lr.ph.i.i

.lr.ph.i.i:                                       ; preds = %2
  %4 = getelementptr inbounds nuw i8, ptr %1, i64 24
  br label %5

5:                                                ; preds = %25, %.lr.ph.i.i
  %.01529.i.i = phi i64 [ 0, %.lr.ph.i.i ], [ %27, %25 ]
  %.01728.i.i = phi ptr [ %0, %.lr.ph.i.i ], [ %26, %25 ]
  %6 = getelementptr inbounds nuw [0 x ptr], ptr %4, i64 0, i64 %.01529.i.i
  %7 = load ptr, ptr %6, align 8, !tbaa !9
  %8 = ptrtoint ptr %7 to i64
  %9 = and i64 %8, 1
  %.not.i19.i.i = icmp eq i64 %9, 0
  br i1 %.not.i19.i.i, label %10, label %lean_array_uget.exit.i.i

10:                                               ; preds = %5
  %.val.i.i.i.i = load i32, ptr %7, align 4, !tbaa !4
  %11 = icmp sgt i32 %.val.i.i.i.i, 0
  br i1 %11, label %12, label %14, !prof !11

12:                                               ; preds = %10
  %13 = add nuw i32 %.val.i.i.i.i, 1
  store i32 %13, ptr %7, align 4, !tbaa !4
  br label %17

14:                                               ; preds = %10
  %.not.i.i.i.i = icmp eq i32 %.val.i.i.i.i, 0
  br i1 %.not.i.i.i.i, label %17, label %15

15:                                               ; preds = %14
  tail call void @lean_inc_ref_cold(ptr noundef nonnull %7) #4
  br label %17

lean_array_uget.exit.i.i:                         ; preds = %5
  %16 = tail call ptr @l_Lean_Compiler_LCNF_collectLocalDeclsArg(ptr noundef %.01728.i.i, ptr noundef %7)
  br label %25

17:                                               ; preds = %15, %14, %12
  %18 = tail call ptr @l_Lean_Compiler_LCNF_collectLocalDeclsArg(ptr noundef %.01728.i.i, ptr noundef nonnull %7)
  %19 = load i32, ptr %7, align 4, !tbaa !4
  %20 = icmp sgt i32 %19, 1
  br i1 %20, label %21, label %23, !prof !11

21:                                               ; preds = %17
  %22 = add nsw i32 %19, -1
  store i32 %22, ptr %7, align 4, !tbaa !4
  br label %25

23:                                               ; preds = %17
  %.not.i.i.i = icmp eq i32 %19, 0
  br i1 %.not.i.i.i, label %25, label %24

24:                                               ; preds = %23
  tail call void @lean_dec_ref_cold(ptr noundef nonnull %7) #4
  br label %25

25:                                               ; preds = %24, %23, %21, %lean_array_uget.exit.i.i
  %26 = phi ptr [ %16, %lean_array_uget.exit.i.i ], [ %18, %21 ], [ %18, %23 ], [ %18, %24 ]
  %27 = add nuw nsw i64 %.01529.i.i, 1
  %.not.i27.i = icmp eq i64 %27, %.mask.i
  br i1 %.not.i27.i, label %l_Lean_Compiler_LCNF_collectLocalDeclsArgs.exit, label %5

l_Lean_Compiler_LCNF_collectLocalDeclsArgs.exit:  ; preds = %25, %2
  %.0.i = phi ptr [ %0, %2 ], [ %26, %25 ]
  %28 = ptrtoint ptr %1 to i64
  %29 = and i64 %28, 1
  %.not = icmp eq i64 %29, 0
  br i1 %.not, label %30, label %lean_dec.exit

30:                                               ; preds = %l_Lean_Compiler_LCNF_collectLocalDeclsArgs.exit
  %31 = load i32, ptr %1, align 4, !tbaa !4
  %32 = icmp sgt i32 %31, 1
  br i1 %32, label %33, label %35, !prof !11

33:                                               ; preds = %30
  %34 = add nsw i32 %31, -1
  store i32 %34, ptr %1, align 4, !tbaa !4
  br label %lean_dec.exit

35:                                               ; preds = %30
  %.not.i = icmp eq i32 %31, 0
  br i1 %.not.i, label %lean_dec.exit, label %36

36:                                               ; preds = %35
  tail call void @lean_dec_ref_cold(ptr noundef nonnull %1) #4
  br label %lean_dec.exit

lean_dec.exit:                                    ; preds = %36, %35, %33, %l_Lean_Compiler_LCNF_collectLocalDeclsArgs.exit
  ret ptr %.0.i
}